ARM GAS  C:\Users\rinck\AppData\Local\Temp\cc2e7cDb.s 			page 1


   1              		.syntax unified
   2              		.cpu cortex-m4
   3              		.eabi_attribute 27, 1
   4              		.eabi_attribute 28, 1
   5              		.fpu fpv4-sp-d16
   6              		.eabi_attribute 20, 1
   7              		.eabi_attribute 21, 1
   8              		.eabi_attribute 23, 3
   9              		.eabi_attribute 24, 1
  10              		.eabi_attribute 25, 1
  11              		.eabi_attribute 26, 1
  12              		.eabi_attribute 30, 1
  13              		.eabi_attribute 34, 1
  14              		.eabi_attribute 18, 4
  15              		.thumb
  16              		.syntax unified
  17              		.file	"system_stm32f4xx.c"
  18              		.text
  19              	.Ltext0:
  20              		.cfi_sections	.debug_frame
  21              		.section	.text.SetSysClock,"ax",%progbits
  22              		.align	2
  23              		.thumb
  24              		.thumb_func
  26              	SetSysClock:
  27              	.LFB125:
  28              		.file 1 "lib/system_stm32f4xx.c"
   1:lib/system_stm32f4xx.c **** /**
   2:lib/system_stm32f4xx.c ****   ******************************************************************************
   3:lib/system_stm32f4xx.c ****   * @file    system_stm32f4xx.c
   4:lib/system_stm32f4xx.c ****   * @author  MCD Application Team
   5:lib/system_stm32f4xx.c ****   * @version V1.8.0
   6:lib/system_stm32f4xx.c ****   * @date    09-November-2016
   7:lib/system_stm32f4xx.c ****   * @brief   CMSIS Cortex-M4 Device Peripheral Access Layer System Source File.
   8:lib/system_stm32f4xx.c ****   *          This file contains the system clock configuration for STM32F4xx devices.
   9:lib/system_stm32f4xx.c ****   *             
  10:lib/system_stm32f4xx.c ****   * 1.  This file provides two functions and one global variable to be called from 
  11:lib/system_stm32f4xx.c ****   *     user application:
  12:lib/system_stm32f4xx.c ****   *      - SystemInit(): Setups the system clock (System clock source, PLL Multiplier
  13:lib/system_stm32f4xx.c ****   *                      and Divider factors, AHB/APBx prescalers and Flash settings),
  14:lib/system_stm32f4xx.c ****   *                      depending on the configuration made in the clock xls tool. 
  15:lib/system_stm32f4xx.c ****   *                      This function is called at startup just after reset and 
  16:lib/system_stm32f4xx.c ****   *                      before branch to main program. This call is made inside
  17:lib/system_stm32f4xx.c ****   *                      the "startup_stm32f4xx.s" file.
  18:lib/system_stm32f4xx.c ****   *
  19:lib/system_stm32f4xx.c ****   *      - SystemCoreClock variable: Contains the core clock (HCLK), it can be used
  20:lib/system_stm32f4xx.c ****   *                                  by the user application to setup the SysTick 
  21:lib/system_stm32f4xx.c ****   *                                  timer or configure other parameters.
  22:lib/system_stm32f4xx.c ****   *                                     
  23:lib/system_stm32f4xx.c ****   *      - SystemCoreClockUpdate(): Updates the variable SystemCoreClock and must
  24:lib/system_stm32f4xx.c ****   *                                 be called whenever the core clock is changed
  25:lib/system_stm32f4xx.c ****   *                                 during program execution.
  26:lib/system_stm32f4xx.c ****   *
  27:lib/system_stm32f4xx.c ****   * 2. After each device reset the HSI (16 MHz) is used as system clock source.
  28:lib/system_stm32f4xx.c ****   *    Then SystemInit() function is called, in "startup_stm32f4xx.s" file, to
  29:lib/system_stm32f4xx.c ****   *    configure the system clock before to branch to main program.
  30:lib/system_stm32f4xx.c ****   *
ARM GAS  C:\Users\rinck\AppData\Local\Temp\cc2e7cDb.s 			page 2


  31:lib/system_stm32f4xx.c ****   * 3. If the system clock source selected by user fails to startup, the SystemInit()
  32:lib/system_stm32f4xx.c ****   *    function will do nothing and HSI still used as system clock source. User can 
  33:lib/system_stm32f4xx.c ****   *    add some code to deal with this issue inside the SetSysClock() function.
  34:lib/system_stm32f4xx.c ****   *
  35:lib/system_stm32f4xx.c ****   * 4. The default value of HSE crystal is set to 25MHz, refer to "HSE_VALUE" define
  36:lib/system_stm32f4xx.c ****   *    in "stm32f4xx.h" file. When HSE is used as system clock source, directly or
  37:lib/system_stm32f4xx.c ****   *    through PLL, and you are using different crystal you have to adapt the HSE
  38:lib/system_stm32f4xx.c ****   *    value to your own configuration.
  39:lib/system_stm32f4xx.c ****   *
  40:lib/system_stm32f4xx.c ****   * 5. This file configures the system clock as follows:
  41:lib/system_stm32f4xx.c ****   *=============================================================================
  42:lib/system_stm32f4xx.c ****   *=============================================================================
  43:lib/system_stm32f4xx.c ****   *                    Supported STM32F40xxx/41xxx devices
  44:lib/system_stm32f4xx.c ****   *-----------------------------------------------------------------------------
  45:lib/system_stm32f4xx.c ****   *        System Clock source                    | PLL (HSE)
  46:lib/system_stm32f4xx.c ****   *-----------------------------------------------------------------------------
  47:lib/system_stm32f4xx.c ****   *        SYSCLK(Hz)                             | 168000000
  48:lib/system_stm32f4xx.c ****   *-----------------------------------------------------------------------------
  49:lib/system_stm32f4xx.c ****   *        HCLK(Hz)                               | 168000000
  50:lib/system_stm32f4xx.c ****   *-----------------------------------------------------------------------------
  51:lib/system_stm32f4xx.c ****   *        AHB Prescaler                          | 1
  52:lib/system_stm32f4xx.c ****   *-----------------------------------------------------------------------------
  53:lib/system_stm32f4xx.c ****   *        APB1 Prescaler                         | 4
  54:lib/system_stm32f4xx.c ****   *-----------------------------------------------------------------------------
  55:lib/system_stm32f4xx.c ****   *        APB2 Prescaler                         | 2
  56:lib/system_stm32f4xx.c ****   *-----------------------------------------------------------------------------
  57:lib/system_stm32f4xx.c ****   *        HSE Frequency(Hz)                      | 25000000
  58:lib/system_stm32f4xx.c ****   *-----------------------------------------------------------------------------
  59:lib/system_stm32f4xx.c ****   *        PLL_M                                  | 25
  60:lib/system_stm32f4xx.c ****   *-----------------------------------------------------------------------------
  61:lib/system_stm32f4xx.c ****   *        PLL_N                                  | 336
  62:lib/system_stm32f4xx.c ****   *-----------------------------------------------------------------------------
  63:lib/system_stm32f4xx.c ****   *        PLL_P                                  | 2
  64:lib/system_stm32f4xx.c ****   *-----------------------------------------------------------------------------
  65:lib/system_stm32f4xx.c ****   *        PLL_Q                                  | 7
  66:lib/system_stm32f4xx.c ****   *-----------------------------------------------------------------------------
  67:lib/system_stm32f4xx.c ****   *        PLLI2S_N                               | NA
  68:lib/system_stm32f4xx.c ****   *-----------------------------------------------------------------------------
  69:lib/system_stm32f4xx.c ****   *        PLLI2S_R                               | NA
  70:lib/system_stm32f4xx.c ****   *-----------------------------------------------------------------------------
  71:lib/system_stm32f4xx.c ****   *        I2S input clock                        | NA
  72:lib/system_stm32f4xx.c ****   *-----------------------------------------------------------------------------
  73:lib/system_stm32f4xx.c ****   *        VDD(V)                                 | 3.3
  74:lib/system_stm32f4xx.c ****   *-----------------------------------------------------------------------------
  75:lib/system_stm32f4xx.c ****   *        Main regulator output voltage          | Scale1 mode
  76:lib/system_stm32f4xx.c ****   *-----------------------------------------------------------------------------
  77:lib/system_stm32f4xx.c ****   *        Flash Latency(WS)                      | 5
  78:lib/system_stm32f4xx.c ****   *-----------------------------------------------------------------------------
  79:lib/system_stm32f4xx.c ****   *        Prefetch Buffer                        | ON
  80:lib/system_stm32f4xx.c ****   *-----------------------------------------------------------------------------
  81:lib/system_stm32f4xx.c ****   *        Instruction cache                      | ON
  82:lib/system_stm32f4xx.c ****   *-----------------------------------------------------------------------------
  83:lib/system_stm32f4xx.c ****   *        Data cache                             | ON
  84:lib/system_stm32f4xx.c ****   *-----------------------------------------------------------------------------
  85:lib/system_stm32f4xx.c ****   *        Require 48MHz for USB OTG FS,          | Disabled
  86:lib/system_stm32f4xx.c ****   *        SDIO and RNG clock                     |
  87:lib/system_stm32f4xx.c ****   *-----------------------------------------------------------------------------
ARM GAS  C:\Users\rinck\AppData\Local\Temp\cc2e7cDb.s 			page 3


  88:lib/system_stm32f4xx.c ****   *=============================================================================
  89:lib/system_stm32f4xx.c ****   *=============================================================================
  90:lib/system_stm32f4xx.c ****   *                    Supported STM32F42xxx/43xxx devices
  91:lib/system_stm32f4xx.c ****   *-----------------------------------------------------------------------------
  92:lib/system_stm32f4xx.c ****   *        System Clock source                    | PLL (HSE)
  93:lib/system_stm32f4xx.c ****   *-----------------------------------------------------------------------------
  94:lib/system_stm32f4xx.c ****   *        SYSCLK(Hz)                             | 180000000
  95:lib/system_stm32f4xx.c ****   *-----------------------------------------------------------------------------
  96:lib/system_stm32f4xx.c ****   *        HCLK(Hz)                               | 180000000
  97:lib/system_stm32f4xx.c ****   *-----------------------------------------------------------------------------
  98:lib/system_stm32f4xx.c ****   *        AHB Prescaler                          | 1
  99:lib/system_stm32f4xx.c ****   *-----------------------------------------------------------------------------
 100:lib/system_stm32f4xx.c ****   *        APB1 Prescaler                         | 4
 101:lib/system_stm32f4xx.c ****   *-----------------------------------------------------------------------------
 102:lib/system_stm32f4xx.c ****   *        APB2 Prescaler                         | 2
 103:lib/system_stm32f4xx.c ****   *-----------------------------------------------------------------------------
 104:lib/system_stm32f4xx.c ****   *        HSE Frequency(Hz)                      | 25000000
 105:lib/system_stm32f4xx.c ****   *-----------------------------------------------------------------------------
 106:lib/system_stm32f4xx.c ****   *        PLL_M                                  | 25
 107:lib/system_stm32f4xx.c ****   *-----------------------------------------------------------------------------
 108:lib/system_stm32f4xx.c ****   *        PLL_N                                  | 360
 109:lib/system_stm32f4xx.c ****   *-----------------------------------------------------------------------------
 110:lib/system_stm32f4xx.c ****   *        PLL_P                                  | 2
 111:lib/system_stm32f4xx.c ****   *-----------------------------------------------------------------------------
 112:lib/system_stm32f4xx.c ****   *        PLL_Q                                  | 7
 113:lib/system_stm32f4xx.c ****   *-----------------------------------------------------------------------------
 114:lib/system_stm32f4xx.c ****   *        PLLI2S_N                               | NA
 115:lib/system_stm32f4xx.c ****   *-----------------------------------------------------------------------------
 116:lib/system_stm32f4xx.c ****   *        PLLI2S_R                               | NA
 117:lib/system_stm32f4xx.c ****   *-----------------------------------------------------------------------------
 118:lib/system_stm32f4xx.c ****   *        I2S input clock                        | NA
 119:lib/system_stm32f4xx.c ****   *-----------------------------------------------------------------------------
 120:lib/system_stm32f4xx.c ****   *        VDD(V)                                 | 3.3
 121:lib/system_stm32f4xx.c ****   *-----------------------------------------------------------------------------
 122:lib/system_stm32f4xx.c ****   *        Main regulator output voltage          | Scale1 mode
 123:lib/system_stm32f4xx.c ****   *-----------------------------------------------------------------------------
 124:lib/system_stm32f4xx.c ****   *        Flash Latency(WS)                      | 5
 125:lib/system_stm32f4xx.c ****   *-----------------------------------------------------------------------------
 126:lib/system_stm32f4xx.c ****   *        Prefetch Buffer                        | ON
 127:lib/system_stm32f4xx.c ****   *-----------------------------------------------------------------------------
 128:lib/system_stm32f4xx.c ****   *        Instruction cache                      | ON
 129:lib/system_stm32f4xx.c ****   *-----------------------------------------------------------------------------
 130:lib/system_stm32f4xx.c ****   *        Data cache                             | ON
 131:lib/system_stm32f4xx.c ****   *-----------------------------------------------------------------------------
 132:lib/system_stm32f4xx.c ****   *        Require 48MHz for USB OTG FS,          | Disabled
 133:lib/system_stm32f4xx.c ****   *        SDIO and RNG clock                     |
 134:lib/system_stm32f4xx.c ****   *-----------------------------------------------------------------------------
 135:lib/system_stm32f4xx.c ****   *=============================================================================
 136:lib/system_stm32f4xx.c ****   *=============================================================================
 137:lib/system_stm32f4xx.c ****   *                         Supported STM32F401xx devices
 138:lib/system_stm32f4xx.c ****   *-----------------------------------------------------------------------------
 139:lib/system_stm32f4xx.c ****   *        System Clock source                    | PLL (HSE)
 140:lib/system_stm32f4xx.c ****   *-----------------------------------------------------------------------------
 141:lib/system_stm32f4xx.c ****   *        SYSCLK(Hz)                             | 84000000
 142:lib/system_stm32f4xx.c ****   *-----------------------------------------------------------------------------
 143:lib/system_stm32f4xx.c ****   *        HCLK(Hz)                               | 84000000
 144:lib/system_stm32f4xx.c ****   *-----------------------------------------------------------------------------
ARM GAS  C:\Users\rinck\AppData\Local\Temp\cc2e7cDb.s 			page 4


 145:lib/system_stm32f4xx.c ****   *        AHB Prescaler                          | 1
 146:lib/system_stm32f4xx.c ****   *-----------------------------------------------------------------------------
 147:lib/system_stm32f4xx.c ****   *        APB1 Prescaler                         | 2
 148:lib/system_stm32f4xx.c ****   *-----------------------------------------------------------------------------
 149:lib/system_stm32f4xx.c ****   *        APB2 Prescaler                         | 1
 150:lib/system_stm32f4xx.c ****   *-----------------------------------------------------------------------------
 151:lib/system_stm32f4xx.c ****   *        HSE Frequency(Hz)                      | 25000000
 152:lib/system_stm32f4xx.c ****   *-----------------------------------------------------------------------------
 153:lib/system_stm32f4xx.c ****   *        PLL_M                                  | 25
 154:lib/system_stm32f4xx.c ****   *-----------------------------------------------------------------------------
 155:lib/system_stm32f4xx.c ****   *        PLL_N                                  | 336
 156:lib/system_stm32f4xx.c ****   *-----------------------------------------------------------------------------
 157:lib/system_stm32f4xx.c ****   *        PLL_P                                  | 4
 158:lib/system_stm32f4xx.c ****   *-----------------------------------------------------------------------------
 159:lib/system_stm32f4xx.c ****   *        PLL_Q                                  | 7
 160:lib/system_stm32f4xx.c ****   *-----------------------------------------------------------------------------
 161:lib/system_stm32f4xx.c ****   *        PLLI2S_N                               | NA
 162:lib/system_stm32f4xx.c ****   *-----------------------------------------------------------------------------
 163:lib/system_stm32f4xx.c ****   *        PLLI2S_R                               | NA
 164:lib/system_stm32f4xx.c ****   *-----------------------------------------------------------------------------
 165:lib/system_stm32f4xx.c ****   *        I2S input clock                        | NA
 166:lib/system_stm32f4xx.c ****   *-----------------------------------------------------------------------------
 167:lib/system_stm32f4xx.c ****   *        VDD(V)                                 | 3.3
 168:lib/system_stm32f4xx.c ****   *-----------------------------------------------------------------------------
 169:lib/system_stm32f4xx.c ****   *        Main regulator output voltage          | Scale1 mode
 170:lib/system_stm32f4xx.c ****   *-----------------------------------------------------------------------------
 171:lib/system_stm32f4xx.c ****   *        Flash Latency(WS)                      | 2
 172:lib/system_stm32f4xx.c ****   *-----------------------------------------------------------------------------
 173:lib/system_stm32f4xx.c ****   *        Prefetch Buffer                        | ON
 174:lib/system_stm32f4xx.c ****   *-----------------------------------------------------------------------------
 175:lib/system_stm32f4xx.c ****   *        Instruction cache                      | ON
 176:lib/system_stm32f4xx.c ****   *-----------------------------------------------------------------------------
 177:lib/system_stm32f4xx.c ****   *        Data cache                             | ON
 178:lib/system_stm32f4xx.c ****   *-----------------------------------------------------------------------------
 179:lib/system_stm32f4xx.c ****   *        Require 48MHz for USB OTG FS,          | Disabled
 180:lib/system_stm32f4xx.c ****   *        SDIO and RNG clock                     |
 181:lib/system_stm32f4xx.c ****   *-----------------------------------------------------------------------------
 182:lib/system_stm32f4xx.c ****   *=============================================================================
 183:lib/system_stm32f4xx.c ****   *=============================================================================
 184:lib/system_stm32f4xx.c ****   *                Supported STM32F411xx/STM32F410xx devices
 185:lib/system_stm32f4xx.c ****   *-----------------------------------------------------------------------------
 186:lib/system_stm32f4xx.c ****   *        System Clock source                    | PLL (HSI)
 187:lib/system_stm32f4xx.c ****   *-----------------------------------------------------------------------------
 188:lib/system_stm32f4xx.c ****   *        SYSCLK(Hz)                             | 100000000
 189:lib/system_stm32f4xx.c ****   *-----------------------------------------------------------------------------
 190:lib/system_stm32f4xx.c ****   *        HCLK(Hz)                               | 100000000
 191:lib/system_stm32f4xx.c ****   *-----------------------------------------------------------------------------
 192:lib/system_stm32f4xx.c ****   *        AHB Prescaler                          | 1
 193:lib/system_stm32f4xx.c ****   *-----------------------------------------------------------------------------
 194:lib/system_stm32f4xx.c ****   *        APB1 Prescaler                         | 2
 195:lib/system_stm32f4xx.c ****   *-----------------------------------------------------------------------------
 196:lib/system_stm32f4xx.c ****   *        APB2 Prescaler                         | 1
 197:lib/system_stm32f4xx.c ****   *-----------------------------------------------------------------------------
 198:lib/system_stm32f4xx.c ****   *        HSI Frequency(Hz)                      | 16000000
 199:lib/system_stm32f4xx.c ****   *-----------------------------------------------------------------------------
 200:lib/system_stm32f4xx.c ****   *        PLL_M                                  | 16
 201:lib/system_stm32f4xx.c ****   *-----------------------------------------------------------------------------
ARM GAS  C:\Users\rinck\AppData\Local\Temp\cc2e7cDb.s 			page 5


 202:lib/system_stm32f4xx.c ****   *        PLL_N                                  | 400
 203:lib/system_stm32f4xx.c ****   *-----------------------------------------------------------------------------
 204:lib/system_stm32f4xx.c ****   *        PLL_P                                  | 4
 205:lib/system_stm32f4xx.c ****   *-----------------------------------------------------------------------------
 206:lib/system_stm32f4xx.c ****   *        PLL_Q                                  | 7
 207:lib/system_stm32f4xx.c ****   *-----------------------------------------------------------------------------
 208:lib/system_stm32f4xx.c ****   *        PLLI2S_N                               | NA
 209:lib/system_stm32f4xx.c ****   *-----------------------------------------------------------------------------
 210:lib/system_stm32f4xx.c ****   *        PLLI2S_R                               | NA
 211:lib/system_stm32f4xx.c ****   *-----------------------------------------------------------------------------
 212:lib/system_stm32f4xx.c ****   *        I2S input clock                        | NA
 213:lib/system_stm32f4xx.c ****   *-----------------------------------------------------------------------------
 214:lib/system_stm32f4xx.c ****   *        VDD(V)                                 | 3.3
 215:lib/system_stm32f4xx.c ****   *-----------------------------------------------------------------------------
 216:lib/system_stm32f4xx.c ****   *        Main regulator output voltage          | Scale1 mode
 217:lib/system_stm32f4xx.c ****   *-----------------------------------------------------------------------------
 218:lib/system_stm32f4xx.c ****   *        Flash Latency(WS)                      | 3
 219:lib/system_stm32f4xx.c ****   *-----------------------------------------------------------------------------
 220:lib/system_stm32f4xx.c ****   *        Prefetch Buffer                        | ON
 221:lib/system_stm32f4xx.c ****   *-----------------------------------------------------------------------------
 222:lib/system_stm32f4xx.c ****   *        Instruction cache                      | ON
 223:lib/system_stm32f4xx.c ****   *-----------------------------------------------------------------------------
 224:lib/system_stm32f4xx.c ****   *        Data cache                             | ON
 225:lib/system_stm32f4xx.c ****   *-----------------------------------------------------------------------------
 226:lib/system_stm32f4xx.c ****   *        Require 48MHz for USB OTG FS,          | Disabled
 227:lib/system_stm32f4xx.c ****   *        SDIO and RNG clock                     |
 228:lib/system_stm32f4xx.c ****   *-----------------------------------------------------------------------------
 229:lib/system_stm32f4xx.c ****   *=============================================================================
 230:lib/system_stm32f4xx.c ****   *=============================================================================
 231:lib/system_stm32f4xx.c ****   *                         Supported STM32F446xx devices
 232:lib/system_stm32f4xx.c ****   *-----------------------------------------------------------------------------
 233:lib/system_stm32f4xx.c ****   *        System Clock source                    | PLL (HSE)
 234:lib/system_stm32f4xx.c ****   *-----------------------------------------------------------------------------
 235:lib/system_stm32f4xx.c ****   *        SYSCLK(Hz)                             | 180000000
 236:lib/system_stm32f4xx.c ****   *-----------------------------------------------------------------------------
 237:lib/system_stm32f4xx.c ****   *        HCLK(Hz)                               | 180000000
 238:lib/system_stm32f4xx.c ****   *-----------------------------------------------------------------------------
 239:lib/system_stm32f4xx.c ****   *        AHB Prescaler                          | 1
 240:lib/system_stm32f4xx.c ****   *-----------------------------------------------------------------------------
 241:lib/system_stm32f4xx.c ****   *        APB1 Prescaler                         | 4
 242:lib/system_stm32f4xx.c ****   *-----------------------------------------------------------------------------
 243:lib/system_stm32f4xx.c ****   *        APB2 Prescaler                         | 2
 244:lib/system_stm32f4xx.c ****   *-----------------------------------------------------------------------------
 245:lib/system_stm32f4xx.c ****   *        HSE Frequency(Hz)                      | 8000000
 246:lib/system_stm32f4xx.c ****   *-----------------------------------------------------------------------------
 247:lib/system_stm32f4xx.c ****   *        PLL_M                                  | 8
 248:lib/system_stm32f4xx.c ****   *-----------------------------------------------------------------------------
 249:lib/system_stm32f4xx.c ****   *        PLL_N                                  | 360
 250:lib/system_stm32f4xx.c ****   *-----------------------------------------------------------------------------
 251:lib/system_stm32f4xx.c ****   *        PLL_P                                  | 2
 252:lib/system_stm32f4xx.c ****   *-----------------------------------------------------------------------------
 253:lib/system_stm32f4xx.c ****   *        PLL_Q                                  | 7
 254:lib/system_stm32f4xx.c ****   *-----------------------------------------------------------------------------
 255:lib/system_stm32f4xx.c ****   *        PLL_R                                  | NA
 256:lib/system_stm32f4xx.c ****   *-----------------------------------------------------------------------------
 257:lib/system_stm32f4xx.c ****   *        PLLI2S_M                               | NA
 258:lib/system_stm32f4xx.c ****   *-----------------------------------------------------------------------------
ARM GAS  C:\Users\rinck\AppData\Local\Temp\cc2e7cDb.s 			page 6


 259:lib/system_stm32f4xx.c ****   *        PLLI2S_N                               | NA
 260:lib/system_stm32f4xx.c ****   *-----------------------------------------------------------------------------
 261:lib/system_stm32f4xx.c ****   *        PLLI2S_P                               | NA
 262:lib/system_stm32f4xx.c ****   *-----------------------------------------------------------------------------
 263:lib/system_stm32f4xx.c ****   *        PLLI2S_Q                               | NA
 264:lib/system_stm32f4xx.c ****   *-----------------------------------------------------------------------------
 265:lib/system_stm32f4xx.c ****   *        PLLI2S_R                               | NA
 266:lib/system_stm32f4xx.c ****   *-----------------------------------------------------------------------------
 267:lib/system_stm32f4xx.c ****   *        I2S input clock                        | NA
 268:lib/system_stm32f4xx.c ****   *-----------------------------------------------------------------------------
 269:lib/system_stm32f4xx.c ****   *        VDD(V)                                 | 3.3
 270:lib/system_stm32f4xx.c ****   *-----------------------------------------------------------------------------
 271:lib/system_stm32f4xx.c ****   *        Main regulator output voltage          | Scale1 mode
 272:lib/system_stm32f4xx.c ****   *-----------------------------------------------------------------------------
 273:lib/system_stm32f4xx.c ****   *        Flash Latency(WS)                      | 5
 274:lib/system_stm32f4xx.c ****   *-----------------------------------------------------------------------------
 275:lib/system_stm32f4xx.c ****   *        Prefetch Buffer                        | ON
 276:lib/system_stm32f4xx.c ****   *-----------------------------------------------------------------------------
 277:lib/system_stm32f4xx.c ****   *        Instruction cache                      | ON
 278:lib/system_stm32f4xx.c ****   *-----------------------------------------------------------------------------
 279:lib/system_stm32f4xx.c ****   *        Data cache                             | ON
 280:lib/system_stm32f4xx.c ****   *-----------------------------------------------------------------------------
 281:lib/system_stm32f4xx.c ****   *        Require 48MHz for USB OTG FS,          | Disabled
 282:lib/system_stm32f4xx.c ****   *        SDIO and RNG clock                     |
 283:lib/system_stm32f4xx.c ****   *-----------------------------------------------------------------------------
 284:lib/system_stm32f4xx.c ****   *=============================================================================
 285:lib/system_stm32f4xx.c ****   ******************************************************************************
 286:lib/system_stm32f4xx.c ****   * @attention
 287:lib/system_stm32f4xx.c ****   *
 288:lib/system_stm32f4xx.c ****   * <h2><center>&copy; COPYRIGHT 2016 STMicroelectronics</center></h2>
 289:lib/system_stm32f4xx.c ****   *
 290:lib/system_stm32f4xx.c ****   * Licensed under MCD-ST Liberty SW License Agreement V2, (the "License");
 291:lib/system_stm32f4xx.c ****   * You may not use this file except in compliance with the License.
 292:lib/system_stm32f4xx.c ****   * You may obtain a copy of the License at:
 293:lib/system_stm32f4xx.c ****   *
 294:lib/system_stm32f4xx.c ****   *        http://www.st.com/software_license_agreement_liberty_v2
 295:lib/system_stm32f4xx.c ****   *
 296:lib/system_stm32f4xx.c ****   * Unless required by applicable law or agreed to in writing, software 
 297:lib/system_stm32f4xx.c ****   * distributed under the License is distributed on an "AS IS" BASIS, 
 298:lib/system_stm32f4xx.c ****   * WITHOUT WARRANTIES OR CONDITIONS OF ANY KIND, either express or implied.
 299:lib/system_stm32f4xx.c ****   * See the License for the specific language governing permissions and
 300:lib/system_stm32f4xx.c ****   * limitations under the License.
 301:lib/system_stm32f4xx.c ****   *
 302:lib/system_stm32f4xx.c ****   ******************************************************************************
 303:lib/system_stm32f4xx.c ****   */
 304:lib/system_stm32f4xx.c **** 
 305:lib/system_stm32f4xx.c **** /** @addtogroup CMSIS
 306:lib/system_stm32f4xx.c ****   * @{
 307:lib/system_stm32f4xx.c ****   */
 308:lib/system_stm32f4xx.c **** 
 309:lib/system_stm32f4xx.c **** /** @addtogroup stm32f4xx_system
 310:lib/system_stm32f4xx.c ****   * @{
 311:lib/system_stm32f4xx.c ****   */  
 312:lib/system_stm32f4xx.c ****   
 313:lib/system_stm32f4xx.c **** /** @addtogroup STM32F4xx_System_Private_Includes
 314:lib/system_stm32f4xx.c ****   * @{
 315:lib/system_stm32f4xx.c ****   */
ARM GAS  C:\Users\rinck\AppData\Local\Temp\cc2e7cDb.s 			page 7


 316:lib/system_stm32f4xx.c **** 
 317:lib/system_stm32f4xx.c **** #include "stm32f4xx.h"
 318:lib/system_stm32f4xx.c **** 
 319:lib/system_stm32f4xx.c **** /**
 320:lib/system_stm32f4xx.c ****   * @}
 321:lib/system_stm32f4xx.c ****   */
 322:lib/system_stm32f4xx.c **** 
 323:lib/system_stm32f4xx.c **** /** @addtogroup STM32F4xx_System_Private_TypesDefinitions
 324:lib/system_stm32f4xx.c ****   * @{
 325:lib/system_stm32f4xx.c ****   */
 326:lib/system_stm32f4xx.c **** 
 327:lib/system_stm32f4xx.c **** /**
 328:lib/system_stm32f4xx.c ****   * @}
 329:lib/system_stm32f4xx.c ****   */
 330:lib/system_stm32f4xx.c **** 
 331:lib/system_stm32f4xx.c **** /** @addtogroup STM32F4xx_System_Private_Defines
 332:lib/system_stm32f4xx.c ****   * @{
 333:lib/system_stm32f4xx.c ****   */
 334:lib/system_stm32f4xx.c **** 
 335:lib/system_stm32f4xx.c **** /************************* Miscellaneous Configuration ************************/
 336:lib/system_stm32f4xx.c **** /*!< Uncomment the following line if you need to use external SRAM or SDRAM mounted
 337:lib/system_stm32f4xx.c ****      on STM324xG_EVAL/STM324x7I_EVAL/STM324x9I_EVAL boards as data memory  */     
 338:lib/system_stm32f4xx.c **** #if defined(STM32F40_41xxx) || defined(STM32F427_437xx) || defined(STM32F429_439xx) || defined(STM3
 339:lib/system_stm32f4xx.c **** /* #define DATA_IN_ExtSRAM */
 340:lib/system_stm32f4xx.c **** #endif /* STM32F40_41xxx || STM32F427_437x || STM32F429_439xx || STM32F469_479xx || STM32F413_423xx
 341:lib/system_stm32f4xx.c **** 
 342:lib/system_stm32f4xx.c **** #if defined(STM32F427_437xx) || defined(STM32F429_439xx) || defined(STM32F446xx) || defined(STM32F4
 343:lib/system_stm32f4xx.c **** /* #define DATA_IN_ExtSDRAM */
 344:lib/system_stm32f4xx.c **** #endif /* STM32F427_437x || STM32F429_439xx || STM32F446xx || STM32F469_479xx */ 
 345:lib/system_stm32f4xx.c **** 
 346:lib/system_stm32f4xx.c **** #if defined(STM32F410xx) || defined(STM32F411xE)
 347:lib/system_stm32f4xx.c **** /*!< Uncomment the following line if you need to clock the STM32F410xx/STM32F411xE by HSE Bypass
 348:lib/system_stm32f4xx.c ****      through STLINK MCO pin of STM32F103 microcontroller. The frequency cannot be changed
 349:lib/system_stm32f4xx.c ****      and is fixed at 8 MHz. 
 350:lib/system_stm32f4xx.c ****      Hardware configuration needed for Nucleo Board:
 351:lib/system_stm32f4xx.c ****      – SB54, SB55 OFF
 352:lib/system_stm32f4xx.c ****      – R35 removed
 353:lib/system_stm32f4xx.c ****      – SB16, SB50 ON */
 354:lib/system_stm32f4xx.c **** /* #define USE_HSE_BYPASS */
 355:lib/system_stm32f4xx.c **** 
 356:lib/system_stm32f4xx.c **** #if defined(USE_HSE_BYPASS)     
 357:lib/system_stm32f4xx.c **** #define HSE_BYPASS_INPUT_FREQUENCY   8000000
 358:lib/system_stm32f4xx.c **** #endif /* USE_HSE_BYPASS */    
 359:lib/system_stm32f4xx.c **** #endif /* STM32F410xx || STM32F411xE */
 360:lib/system_stm32f4xx.c ****     
 361:lib/system_stm32f4xx.c **** /*!< Uncomment the following line if you need to relocate your vector Table in
 362:lib/system_stm32f4xx.c ****      Internal SRAM. */
 363:lib/system_stm32f4xx.c **** /* #define VECT_TAB_SRAM */
 364:lib/system_stm32f4xx.c **** #define VECT_TAB_OFFSET  0x00 /*!< Vector Table base offset field. 
 365:lib/system_stm32f4xx.c ****                                    This value must be a multiple of 0x200. */
 366:lib/system_stm32f4xx.c **** /******************************************************************************/
 367:lib/system_stm32f4xx.c **** 
 368:lib/system_stm32f4xx.c **** /************************* PLL Parameters *************************************/
 369:lib/system_stm32f4xx.c **** #if defined(STM32F40_41xxx) || defined(STM32F427_437xx) || defined(STM32F429_439xx) || defined(STM3
 370:lib/system_stm32f4xx.c ****  /* PLL_VCO = (HSE_VALUE or HSI_VALUE / PLL_M) * PLL_N */
 371:lib/system_stm32f4xx.c ****  #define PLL_M      25
 372:lib/system_stm32f4xx.c **** #elif defined(STM32F412xG) || defined(STM32F413_423xx) || defined (STM32F446xx)
ARM GAS  C:\Users\rinck\AppData\Local\Temp\cc2e7cDb.s 			page 8


 373:lib/system_stm32f4xx.c ****  #define PLL_M      8
 374:lib/system_stm32f4xx.c **** #elif defined (STM32F410xx) || defined (STM32F411xE)
 375:lib/system_stm32f4xx.c ****  #if defined(USE_HSE_BYPASS)
 376:lib/system_stm32f4xx.c ****   #define PLL_M      8    
 377:lib/system_stm32f4xx.c ****  #else /* !USE_HSE_BYPASS */
 378:lib/system_stm32f4xx.c ****   #define PLL_M      16
 379:lib/system_stm32f4xx.c ****  #endif /* USE_HSE_BYPASS */
 380:lib/system_stm32f4xx.c **** #else
 381:lib/system_stm32f4xx.c **** #endif /* STM32F40_41xxx || STM32F427_437xx || STM32F429_439xx || STM32F401xx || STM32F469_479xx */
 382:lib/system_stm32f4xx.c **** 
 383:lib/system_stm32f4xx.c **** /* USB OTG FS, SDIO and RNG Clock =  PLL_VCO / PLLQ */
 384:lib/system_stm32f4xx.c **** #define PLL_Q      7
 385:lib/system_stm32f4xx.c **** 
 386:lib/system_stm32f4xx.c **** #if defined(STM32F446xx)
 387:lib/system_stm32f4xx.c **** /* PLL division factor for I2S, SAI, SYSTEM and SPDIF: Clock =  PLL_VCO / PLLR */
 388:lib/system_stm32f4xx.c **** #define PLL_R      7
 389:lib/system_stm32f4xx.c **** #elif defined(STM32F412xG) || defined(STM32F413_423xx)
 390:lib/system_stm32f4xx.c **** #define PLL_R      2
 391:lib/system_stm32f4xx.c **** #else
 392:lib/system_stm32f4xx.c **** #endif /* STM32F446xx */ 
 393:lib/system_stm32f4xx.c **** 
 394:lib/system_stm32f4xx.c **** #if defined(STM32F427_437xx) || defined(STM32F429_439xx) || defined(STM32F446xx) || defined(STM32F4
 395:lib/system_stm32f4xx.c **** #define PLL_N      360
 396:lib/system_stm32f4xx.c **** /* SYSCLK = PLL_VCO / PLL_P */
 397:lib/system_stm32f4xx.c **** #define PLL_P      2
 398:lib/system_stm32f4xx.c **** #endif /* STM32F427_437x || STM32F429_439xx || STM32F446xx || STM32F469_479xx */
 399:lib/system_stm32f4xx.c **** 
 400:lib/system_stm32f4xx.c **** #if defined (STM32F40_41xxx)
 401:lib/system_stm32f4xx.c **** #define PLL_N      336
 402:lib/system_stm32f4xx.c **** /* SYSCLK = PLL_VCO / PLL_P */
 403:lib/system_stm32f4xx.c **** #define PLL_P      2
 404:lib/system_stm32f4xx.c **** #endif /* STM32F40_41xxx */
 405:lib/system_stm32f4xx.c **** 
 406:lib/system_stm32f4xx.c **** #if defined(STM32F401xx)
 407:lib/system_stm32f4xx.c **** #define PLL_N      336
 408:lib/system_stm32f4xx.c **** /* SYSCLK = PLL_VCO / PLL_P */
 409:lib/system_stm32f4xx.c **** #define PLL_P      4
 410:lib/system_stm32f4xx.c **** #endif /* STM32F401xx */
 411:lib/system_stm32f4xx.c **** 
 412:lib/system_stm32f4xx.c **** #if defined(STM32F410xx) || defined(STM32F411xE) || defined(STM32F412xG) || defined(STM32F413_423xx
 413:lib/system_stm32f4xx.c **** #define PLL_N      400
 414:lib/system_stm32f4xx.c **** /* SYSCLK = PLL_VCO / PLL_P */
 415:lib/system_stm32f4xx.c **** #define PLL_P      4   
 416:lib/system_stm32f4xx.c **** #endif /* STM32F410xx || STM32F411xE || STM32F412xG || STM32F413_423xx */
 417:lib/system_stm32f4xx.c **** 
 418:lib/system_stm32f4xx.c **** /******************************************************************************/
 419:lib/system_stm32f4xx.c **** 
 420:lib/system_stm32f4xx.c **** /**
 421:lib/system_stm32f4xx.c ****   * @}
 422:lib/system_stm32f4xx.c ****   */
 423:lib/system_stm32f4xx.c **** 
 424:lib/system_stm32f4xx.c **** /** @addtogroup STM32F4xx_System_Private_Macros
 425:lib/system_stm32f4xx.c ****   * @{
 426:lib/system_stm32f4xx.c ****   */
 427:lib/system_stm32f4xx.c **** 
 428:lib/system_stm32f4xx.c **** /**
 429:lib/system_stm32f4xx.c ****   * @}
ARM GAS  C:\Users\rinck\AppData\Local\Temp\cc2e7cDb.s 			page 9


 430:lib/system_stm32f4xx.c ****   */
 431:lib/system_stm32f4xx.c **** 
 432:lib/system_stm32f4xx.c **** /** @addtogroup STM32F4xx_System_Private_Variables
 433:lib/system_stm32f4xx.c ****   * @{
 434:lib/system_stm32f4xx.c ****   */
 435:lib/system_stm32f4xx.c **** 
 436:lib/system_stm32f4xx.c **** #if defined(STM32F40_41xxx)
 437:lib/system_stm32f4xx.c ****   uint32_t SystemCoreClock = 168000000;
 438:lib/system_stm32f4xx.c **** #endif /* STM32F40_41xxx */
 439:lib/system_stm32f4xx.c **** 
 440:lib/system_stm32f4xx.c **** #if defined(STM32F427_437xx) || defined(STM32F429_439xx) || defined(STM32F446xx) || defined(STM32F4
 441:lib/system_stm32f4xx.c ****   uint32_t SystemCoreClock = 180000000;
 442:lib/system_stm32f4xx.c **** #endif /* STM32F427_437x || STM32F429_439xx || STM32F446xx || STM32F469_479xx */
 443:lib/system_stm32f4xx.c **** 
 444:lib/system_stm32f4xx.c **** #if defined(STM32F401xx)
 445:lib/system_stm32f4xx.c ****   uint32_t SystemCoreClock = 84000000;
 446:lib/system_stm32f4xx.c **** #endif /* STM32F401xx */
 447:lib/system_stm32f4xx.c **** 
 448:lib/system_stm32f4xx.c **** #if defined(STM32F410xx) || defined(STM32F411xE) || defined(STM32F412xG) || defined(STM32F413_423xx
 449:lib/system_stm32f4xx.c ****   uint32_t SystemCoreClock = 100000000;
 450:lib/system_stm32f4xx.c **** #endif /* STM32F410xx || STM32F401xE || STM32F412xG || STM32F413_423xx */
 451:lib/system_stm32f4xx.c **** 
 452:lib/system_stm32f4xx.c **** __I uint8_t AHBPrescTable[16] = {0, 0, 0, 0, 0, 0, 0, 0, 1, 2, 3, 4, 6, 7, 8, 9};
 453:lib/system_stm32f4xx.c **** 
 454:lib/system_stm32f4xx.c **** /**
 455:lib/system_stm32f4xx.c ****   * @}
 456:lib/system_stm32f4xx.c ****   */
 457:lib/system_stm32f4xx.c **** 
 458:lib/system_stm32f4xx.c **** /** @addtogroup STM32F4xx_System_Private_FunctionPrototypes
 459:lib/system_stm32f4xx.c ****   * @{
 460:lib/system_stm32f4xx.c ****   */
 461:lib/system_stm32f4xx.c **** 
 462:lib/system_stm32f4xx.c **** static void SetSysClock(void);
 463:lib/system_stm32f4xx.c **** 
 464:lib/system_stm32f4xx.c **** #if defined(DATA_IN_ExtSRAM) || defined(DATA_IN_ExtSDRAM)
 465:lib/system_stm32f4xx.c **** static void SystemInit_ExtMemCtl(void); 
 466:lib/system_stm32f4xx.c **** #endif /* DATA_IN_ExtSRAM || DATA_IN_ExtSDRAM */
 467:lib/system_stm32f4xx.c **** 
 468:lib/system_stm32f4xx.c **** /**
 469:lib/system_stm32f4xx.c ****   * @}
 470:lib/system_stm32f4xx.c ****   */
 471:lib/system_stm32f4xx.c **** 
 472:lib/system_stm32f4xx.c **** /** @addtogroup STM32F4xx_System_Private_Functions
 473:lib/system_stm32f4xx.c ****   * @{
 474:lib/system_stm32f4xx.c ****   */
 475:lib/system_stm32f4xx.c **** 
 476:lib/system_stm32f4xx.c **** /**
 477:lib/system_stm32f4xx.c ****   * @brief  Setup the microcontroller system
 478:lib/system_stm32f4xx.c ****   *         Initialize the Embedded Flash Interface, the PLL and update the 
 479:lib/system_stm32f4xx.c ****   *         SystemFrequency variable.
 480:lib/system_stm32f4xx.c ****   * @param  None
 481:lib/system_stm32f4xx.c ****   * @retval None
 482:lib/system_stm32f4xx.c ****   */
 483:lib/system_stm32f4xx.c **** void SystemInit(void)
 484:lib/system_stm32f4xx.c **** {
 485:lib/system_stm32f4xx.c ****   /* FPU settings ------------------------------------------------------------*/
 486:lib/system_stm32f4xx.c ****   #if (__FPU_PRESENT == 1) && (__FPU_USED == 1)
ARM GAS  C:\Users\rinck\AppData\Local\Temp\cc2e7cDb.s 			page 10


 487:lib/system_stm32f4xx.c ****     SCB->CPACR |= ((3UL << 10*2)|(3UL << 11*2));  /* set CP10 and CP11 Full Access */
 488:lib/system_stm32f4xx.c ****   #endif
 489:lib/system_stm32f4xx.c ****   /* Reset the RCC clock configuration to the default reset state ------------*/
 490:lib/system_stm32f4xx.c ****   /* Set HSION bit */
 491:lib/system_stm32f4xx.c ****   RCC->CR |= (uint32_t)0x00000001;
 492:lib/system_stm32f4xx.c **** 
 493:lib/system_stm32f4xx.c ****   /* Reset CFGR register */
 494:lib/system_stm32f4xx.c ****   RCC->CFGR = 0x00000000;
 495:lib/system_stm32f4xx.c **** 
 496:lib/system_stm32f4xx.c ****   /* Reset HSEON, CSSON and PLLON bits */
 497:lib/system_stm32f4xx.c ****   RCC->CR &= (uint32_t)0xFEF6FFFF;
 498:lib/system_stm32f4xx.c **** 
 499:lib/system_stm32f4xx.c ****   /* Reset PLLCFGR register */
 500:lib/system_stm32f4xx.c ****   RCC->PLLCFGR = 0x24003010;
 501:lib/system_stm32f4xx.c **** 
 502:lib/system_stm32f4xx.c ****   /* Reset HSEBYP bit */
 503:lib/system_stm32f4xx.c ****   RCC->CR &= (uint32_t)0xFFFBFFFF;
 504:lib/system_stm32f4xx.c **** 
 505:lib/system_stm32f4xx.c ****   /* Disable all interrupts */
 506:lib/system_stm32f4xx.c ****   RCC->CIR = 0x00000000;
 507:lib/system_stm32f4xx.c **** 
 508:lib/system_stm32f4xx.c **** #if defined(DATA_IN_ExtSRAM) || defined(DATA_IN_ExtSDRAM)
 509:lib/system_stm32f4xx.c ****   SystemInit_ExtMemCtl(); 
 510:lib/system_stm32f4xx.c **** #endif /* DATA_IN_ExtSRAM || DATA_IN_ExtSDRAM */
 511:lib/system_stm32f4xx.c ****          
 512:lib/system_stm32f4xx.c ****   /* Configure the System clock source, PLL Multiplier and Divider factors, 
 513:lib/system_stm32f4xx.c ****      AHB/APBx prescalers and Flash settings ----------------------------------*/
 514:lib/system_stm32f4xx.c ****   SetSysClock();
 515:lib/system_stm32f4xx.c **** 
 516:lib/system_stm32f4xx.c ****   /* Configure the Vector Table location add offset address ------------------*/
 517:lib/system_stm32f4xx.c **** #ifdef VECT_TAB_SRAM
 518:lib/system_stm32f4xx.c ****   SCB->VTOR = SRAM_BASE | VECT_TAB_OFFSET; /* Vector Table Relocation in Internal SRAM */
 519:lib/system_stm32f4xx.c **** #else
 520:lib/system_stm32f4xx.c ****   SCB->VTOR = FLASH_BASE | VECT_TAB_OFFSET; /* Vector Table Relocation in Internal FLASH */
 521:lib/system_stm32f4xx.c **** #endif
 522:lib/system_stm32f4xx.c **** }
 523:lib/system_stm32f4xx.c **** 
 524:lib/system_stm32f4xx.c **** /**
 525:lib/system_stm32f4xx.c ****    * @brief  Update SystemCoreClock variable according to Clock Register Values.
 526:lib/system_stm32f4xx.c ****   *         The SystemCoreClock variable contains the core clock (HCLK), it can
 527:lib/system_stm32f4xx.c ****   *         be used by the user application to setup the SysTick timer or configure
 528:lib/system_stm32f4xx.c ****   *         other parameters.
 529:lib/system_stm32f4xx.c ****   *           
 530:lib/system_stm32f4xx.c ****   * @note   Each time the core clock (HCLK) changes, this function must be called
 531:lib/system_stm32f4xx.c ****   *         to update SystemCoreClock variable value. Otherwise, any configuration
 532:lib/system_stm32f4xx.c ****   *         based on this variable will be incorrect.         
 533:lib/system_stm32f4xx.c ****   *     
 534:lib/system_stm32f4xx.c ****   * @note   - The system frequency computed by this function is not the real 
 535:lib/system_stm32f4xx.c ****   *           frequency in the chip. It is calculated based on the predefined 
 536:lib/system_stm32f4xx.c ****   *           constant and the selected clock source:
 537:lib/system_stm32f4xx.c ****   *             
 538:lib/system_stm32f4xx.c ****   *           - If SYSCLK source is HSI, SystemCoreClock will contain the HSI_VALUE(*)
 539:lib/system_stm32f4xx.c ****   *                                              
 540:lib/system_stm32f4xx.c ****   *           - If SYSCLK source is HSE, SystemCoreClock will contain the HSE_VALUE(**)
 541:lib/system_stm32f4xx.c ****   *                          
 542:lib/system_stm32f4xx.c ****   *           - If SYSCLK source is PLL, SystemCoreClock will contain the HSE_VALUE(**) 
 543:lib/system_stm32f4xx.c ****   *             or HSI_VALUE(*) multiplied/divided by the PLL factors.
ARM GAS  C:\Users\rinck\AppData\Local\Temp\cc2e7cDb.s 			page 11


 544:lib/system_stm32f4xx.c ****   *         
 545:lib/system_stm32f4xx.c ****   *         (*) HSI_VALUE is a constant defined in stm32f4xx.h file (default value
 546:lib/system_stm32f4xx.c ****   *             16 MHz) but the real value may vary depending on the variations
 547:lib/system_stm32f4xx.c ****   *             in voltage and temperature.   
 548:lib/system_stm32f4xx.c ****   *    
 549:lib/system_stm32f4xx.c ****   *         (**) HSE_VALUE is a constant defined in stm32f4xx.h file (default value
 550:lib/system_stm32f4xx.c ****   *              25 MHz), user has to ensure that HSE_VALUE is same as the real
 551:lib/system_stm32f4xx.c ****   *              frequency of the crystal used. Otherwise, this function may
 552:lib/system_stm32f4xx.c ****   *              have wrong result.
 553:lib/system_stm32f4xx.c ****   *                
 554:lib/system_stm32f4xx.c ****   *         - The result of this function could be not correct when using fractional
 555:lib/system_stm32f4xx.c ****   *           value for HSE crystal.
 556:lib/system_stm32f4xx.c ****   *     
 557:lib/system_stm32f4xx.c ****   * @param  None
 558:lib/system_stm32f4xx.c ****   * @retval None
 559:lib/system_stm32f4xx.c ****   */
 560:lib/system_stm32f4xx.c **** void SystemCoreClockUpdate(void)
 561:lib/system_stm32f4xx.c **** {
 562:lib/system_stm32f4xx.c ****   uint32_t tmp = 0, pllvco = 0, pllp = 2, pllsource = 0, pllm = 2;
 563:lib/system_stm32f4xx.c **** #if defined(STM32F412xG) || defined(STM32F413_423xx) || defined(STM32F446xx)  
 564:lib/system_stm32f4xx.c ****   uint32_t pllr = 2;
 565:lib/system_stm32f4xx.c **** #endif /* STM32F412xG || STM32F413_423xx || STM32F446xx */
 566:lib/system_stm32f4xx.c ****   /* Get SYSCLK source -------------------------------------------------------*/
 567:lib/system_stm32f4xx.c ****   tmp = RCC->CFGR & RCC_CFGR_SWS;
 568:lib/system_stm32f4xx.c **** 
 569:lib/system_stm32f4xx.c ****   switch (tmp)
 570:lib/system_stm32f4xx.c ****   {
 571:lib/system_stm32f4xx.c ****     case 0x00:  /* HSI used as system clock source */
 572:lib/system_stm32f4xx.c ****       SystemCoreClock = HSI_VALUE;
 573:lib/system_stm32f4xx.c ****       break;
 574:lib/system_stm32f4xx.c ****     case 0x04:  /* HSE used as system clock source */
 575:lib/system_stm32f4xx.c ****       SystemCoreClock = HSE_VALUE;
 576:lib/system_stm32f4xx.c ****       break;
 577:lib/system_stm32f4xx.c ****     case 0x08:  /* PLL P used as system clock source */
 578:lib/system_stm32f4xx.c ****        /* PLL_VCO = (HSE_VALUE or HSI_VALUE / PLL_M) * PLL_N
 579:lib/system_stm32f4xx.c ****          SYSCLK = PLL_VCO / PLL_P
 580:lib/system_stm32f4xx.c ****          */    
 581:lib/system_stm32f4xx.c ****       pllsource = (RCC->PLLCFGR & RCC_PLLCFGR_PLLSRC) >> 22;
 582:lib/system_stm32f4xx.c ****       pllm = RCC->PLLCFGR & RCC_PLLCFGR_PLLM;
 583:lib/system_stm32f4xx.c ****       
 584:lib/system_stm32f4xx.c **** #if defined(STM32F40_41xxx) || defined(STM32F427_437xx) || defined(STM32F429_439xx) || defined(STM3
 585:lib/system_stm32f4xx.c ****       if (pllsource != 0)
 586:lib/system_stm32f4xx.c ****       {
 587:lib/system_stm32f4xx.c ****         /* HSE used as PLL clock source */
 588:lib/system_stm32f4xx.c ****         pllvco = (HSE_VALUE / pllm) * ((RCC->PLLCFGR & RCC_PLLCFGR_PLLN) >> 6);
 589:lib/system_stm32f4xx.c ****       }
 590:lib/system_stm32f4xx.c ****       else
 591:lib/system_stm32f4xx.c ****       {
 592:lib/system_stm32f4xx.c ****         /* HSI used as PLL clock source */
 593:lib/system_stm32f4xx.c ****         pllvco = (HSI_VALUE / pllm) * ((RCC->PLLCFGR & RCC_PLLCFGR_PLLN) >> 6);
 594:lib/system_stm32f4xx.c ****       }
 595:lib/system_stm32f4xx.c **** #elif defined(STM32F410xx) || defined(STM32F411xE)
 596:lib/system_stm32f4xx.c **** #if defined(USE_HSE_BYPASS)
 597:lib/system_stm32f4xx.c ****       if (pllsource != 0)
 598:lib/system_stm32f4xx.c ****       {
 599:lib/system_stm32f4xx.c ****         /* HSE used as PLL clock source */
 600:lib/system_stm32f4xx.c ****         pllvco = (HSE_BYPASS_INPUT_FREQUENCY / pllm) * ((RCC->PLLCFGR & RCC_PLLCFGR_PLLN) >> 6);
ARM GAS  C:\Users\rinck\AppData\Local\Temp\cc2e7cDb.s 			page 12


 601:lib/system_stm32f4xx.c ****       }  
 602:lib/system_stm32f4xx.c **** #else  
 603:lib/system_stm32f4xx.c ****       if (pllsource == 0)
 604:lib/system_stm32f4xx.c ****       {
 605:lib/system_stm32f4xx.c ****         /* HSI used as PLL clock source */
 606:lib/system_stm32f4xx.c ****         pllvco = (HSI_VALUE / pllm) * ((RCC->PLLCFGR & RCC_PLLCFGR_PLLN) >> 6);
 607:lib/system_stm32f4xx.c ****       }  
 608:lib/system_stm32f4xx.c **** #endif /* USE_HSE_BYPASS */  
 609:lib/system_stm32f4xx.c **** #endif /* STM32F40_41xxx || STM32F427_437xx || STM32F429_439xx || STM32F401xx || STM32F412xG || STM
 610:lib/system_stm32f4xx.c ****       pllp = (((RCC->PLLCFGR & RCC_PLLCFGR_PLLP) >>16) + 1 ) *2;
 611:lib/system_stm32f4xx.c ****       SystemCoreClock = pllvco/pllp;      
 612:lib/system_stm32f4xx.c ****       break;
 613:lib/system_stm32f4xx.c **** #if defined(STM32F412xG) || defined(STM32F413_423xx) || defined(STM32F446xx)      
 614:lib/system_stm32f4xx.c ****       case 0x0C:  /* PLL R used as system clock source */
 615:lib/system_stm32f4xx.c ****        /* PLL_VCO = (HSE_VALUE or HSI_VALUE / PLL_M) * PLL_N
 616:lib/system_stm32f4xx.c ****          SYSCLK = PLL_VCO / PLL_R
 617:lib/system_stm32f4xx.c ****          */    
 618:lib/system_stm32f4xx.c ****       pllsource = (RCC->PLLCFGR & RCC_PLLCFGR_PLLSRC) >> 22;
 619:lib/system_stm32f4xx.c ****       pllm = RCC->PLLCFGR & RCC_PLLCFGR_PLLM;
 620:lib/system_stm32f4xx.c ****       if (pllsource != 0)
 621:lib/system_stm32f4xx.c ****       {
 622:lib/system_stm32f4xx.c ****         /* HSE used as PLL clock source */
 623:lib/system_stm32f4xx.c ****         pllvco = (HSE_VALUE / pllm) * ((RCC->PLLCFGR & RCC_PLLCFGR_PLLN) >> 6);
 624:lib/system_stm32f4xx.c ****       }
 625:lib/system_stm32f4xx.c ****       else
 626:lib/system_stm32f4xx.c ****       {
 627:lib/system_stm32f4xx.c ****         /* HSI used as PLL clock source */
 628:lib/system_stm32f4xx.c ****         pllvco = (HSI_VALUE / pllm) * ((RCC->PLLCFGR & RCC_PLLCFGR_PLLN) >> 6);      
 629:lib/system_stm32f4xx.c ****       }
 630:lib/system_stm32f4xx.c ****  
 631:lib/system_stm32f4xx.c ****       pllr = (((RCC->PLLCFGR & RCC_PLLCFGR_PLLR) >>28) + 1 ) *2;
 632:lib/system_stm32f4xx.c ****       SystemCoreClock = pllvco/pllr;      
 633:lib/system_stm32f4xx.c ****       break;
 634:lib/system_stm32f4xx.c **** #endif /* STM32F412xG || STM32F413_423xx || STM32F446xx */
 635:lib/system_stm32f4xx.c ****     default:
 636:lib/system_stm32f4xx.c ****       SystemCoreClock = HSI_VALUE;
 637:lib/system_stm32f4xx.c ****       break;
 638:lib/system_stm32f4xx.c ****   }
 639:lib/system_stm32f4xx.c ****   /* Compute HCLK frequency --------------------------------------------------*/
 640:lib/system_stm32f4xx.c ****   /* Get HCLK prescaler */
 641:lib/system_stm32f4xx.c ****   tmp = AHBPrescTable[((RCC->CFGR & RCC_CFGR_HPRE) >> 4)];
 642:lib/system_stm32f4xx.c ****   /* HCLK frequency */
 643:lib/system_stm32f4xx.c ****   SystemCoreClock >>= tmp;
 644:lib/system_stm32f4xx.c **** }
 645:lib/system_stm32f4xx.c **** 
 646:lib/system_stm32f4xx.c **** /**
 647:lib/system_stm32f4xx.c ****   * @brief  Configures the System clock source, PLL Multiplier and Divider factors, 
 648:lib/system_stm32f4xx.c ****   *         AHB/APBx prescalers and Flash settings
 649:lib/system_stm32f4xx.c ****   * @Note   This function should be called only once the RCC clock configuration  
 650:lib/system_stm32f4xx.c ****   *         is reset to the default reset state (done in SystemInit() function).   
 651:lib/system_stm32f4xx.c ****   * @param  None
 652:lib/system_stm32f4xx.c ****   * @retval None
 653:lib/system_stm32f4xx.c ****   */
 654:lib/system_stm32f4xx.c **** static void SetSysClock(void)
 655:lib/system_stm32f4xx.c **** {
  29              		.loc 1 655 0
  30              		.cfi_startproc
ARM GAS  C:\Users\rinck\AppData\Local\Temp\cc2e7cDb.s 			page 13


  31              		@ args = 0, pretend = 0, frame = 8
  32              		@ frame_needed = 0, uses_anonymous_args = 0
  33              		@ link register save eliminated.
  34 0000 82B0     		sub	sp, sp, #8
  35              	.LCFI0:
  36              		.cfi_def_cfa_offset 8
 656:lib/system_stm32f4xx.c **** #if defined(STM32F40_41xxx) || defined(STM32F427_437xx) || defined(STM32F429_439xx) || defined(STM3
 657:lib/system_stm32f4xx.c **** /******************************************************************************/
 658:lib/system_stm32f4xx.c **** /*            PLL (clocked by HSE) used as System clock source                */
 659:lib/system_stm32f4xx.c **** /******************************************************************************/
 660:lib/system_stm32f4xx.c ****   __IO uint32_t StartUpCounter = 0, HSEStatus = 0;
  37              		.loc 1 660 0
  38 0002 0023     		movs	r3, #0
  39 0004 0193     		str	r3, [sp, #4]
  40 0006 0093     		str	r3, [sp]
 661:lib/system_stm32f4xx.c ****   
 662:lib/system_stm32f4xx.c ****   /* Enable HSE */
 663:lib/system_stm32f4xx.c ****   RCC->CR |= ((uint32_t)RCC_CR_HSEON);
  41              		.loc 1 663 0
  42 0008 2A4A     		ldr	r2, .L10
  43 000a 1368     		ldr	r3, [r2]
  44 000c 43F48033 		orr	r3, r3, #65536
  45 0010 1360     		str	r3, [r2]
  46              	.L3:
 664:lib/system_stm32f4xx.c ****  
 665:lib/system_stm32f4xx.c ****   /* Wait till HSE is ready and if Time out is reached exit */
 666:lib/system_stm32f4xx.c ****   do
 667:lib/system_stm32f4xx.c ****   {
 668:lib/system_stm32f4xx.c ****     HSEStatus = RCC->CR & RCC_CR_HSERDY;
  47              		.loc 1 668 0 discriminator 2
  48 0012 284B     		ldr	r3, .L10
  49 0014 1B68     		ldr	r3, [r3]
  50 0016 03F40033 		and	r3, r3, #131072
  51 001a 0093     		str	r3, [sp]
 669:lib/system_stm32f4xx.c ****     StartUpCounter++;
  52              		.loc 1 669 0 discriminator 2
  53 001c 019B     		ldr	r3, [sp, #4]
  54 001e 0133     		adds	r3, r3, #1
  55 0020 0193     		str	r3, [sp, #4]
 670:lib/system_stm32f4xx.c ****   } while((HSEStatus == 0) && (StartUpCounter != HSE_STARTUP_TIMEOUT));
  56              		.loc 1 670 0 discriminator 2
  57 0022 009B     		ldr	r3, [sp]
  58 0024 1BB9     		cbnz	r3, .L2
  59              		.loc 1 670 0 is_stmt 0 discriminator 1
  60 0026 019B     		ldr	r3, [sp, #4]
  61 0028 B3F5A04F 		cmp	r3, #20480
  62 002c F1D1     		bne	.L3
  63              	.L2:
 671:lib/system_stm32f4xx.c **** 
 672:lib/system_stm32f4xx.c ****   if ((RCC->CR & RCC_CR_HSERDY) != RESET)
  64              		.loc 1 672 0 is_stmt 1
  65 002e 214B     		ldr	r3, .L10
  66 0030 1B68     		ldr	r3, [r3]
  67 0032 13F4003F 		tst	r3, #131072
  68 0036 02D0     		beq	.L4
 673:lib/system_stm32f4xx.c ****   {
 674:lib/system_stm32f4xx.c ****     HSEStatus = (uint32_t)0x01;
ARM GAS  C:\Users\rinck\AppData\Local\Temp\cc2e7cDb.s 			page 14


  69              		.loc 1 674 0
  70 0038 0123     		movs	r3, #1
  71 003a 0093     		str	r3, [sp]
  72 003c 01E0     		b	.L5
  73              	.L4:
 675:lib/system_stm32f4xx.c ****   }
 676:lib/system_stm32f4xx.c ****   else
 677:lib/system_stm32f4xx.c ****   {
 678:lib/system_stm32f4xx.c ****     HSEStatus = (uint32_t)0x00;
  74              		.loc 1 678 0
  75 003e 0023     		movs	r3, #0
  76 0040 0093     		str	r3, [sp]
  77              	.L5:
 679:lib/system_stm32f4xx.c ****   }
 680:lib/system_stm32f4xx.c **** 
 681:lib/system_stm32f4xx.c ****   if (HSEStatus == (uint32_t)0x01)
  78              		.loc 1 681 0
  79 0042 009B     		ldr	r3, [sp]
  80 0044 012B     		cmp	r3, #1
  81 0046 32D1     		bne	.L1
 682:lib/system_stm32f4xx.c ****   {
 683:lib/system_stm32f4xx.c ****     /* Select regulator voltage output Scale 1 mode */
 684:lib/system_stm32f4xx.c ****     RCC->APB1ENR |= RCC_APB1ENR_PWREN;
  82              		.loc 1 684 0
  83 0048 1A4B     		ldr	r3, .L10
  84 004a 1A6C     		ldr	r2, [r3, #64]
  85 004c 42F08052 		orr	r2, r2, #268435456
  86 0050 1A64     		str	r2, [r3, #64]
 685:lib/system_stm32f4xx.c ****     PWR->CR |= PWR_CR_VOS;
  87              		.loc 1 685 0
  88 0052 1949     		ldr	r1, .L10+4
  89 0054 0A68     		ldr	r2, [r1]
  90 0056 42F44042 		orr	r2, r2, #49152
  91 005a 0A60     		str	r2, [r1]
 686:lib/system_stm32f4xx.c **** 
 687:lib/system_stm32f4xx.c ****     /* HCLK = SYSCLK / 1*/
 688:lib/system_stm32f4xx.c ****     RCC->CFGR |= RCC_CFGR_HPRE_DIV1;
  92              		.loc 1 688 0
  93 005c 9A68     		ldr	r2, [r3, #8]
  94 005e 9A60     		str	r2, [r3, #8]
 689:lib/system_stm32f4xx.c **** 
 690:lib/system_stm32f4xx.c **** #if defined(STM32F40_41xxx) || defined(STM32F427_437xx) || defined(STM32F429_439xx) ||  defined(STM
 691:lib/system_stm32f4xx.c ****     /* PCLK2 = HCLK / 2*/
 692:lib/system_stm32f4xx.c ****     RCC->CFGR |= RCC_CFGR_PPRE2_DIV2;
  95              		.loc 1 692 0
  96 0060 9A68     		ldr	r2, [r3, #8]
  97 0062 42F40042 		orr	r2, r2, #32768
  98 0066 9A60     		str	r2, [r3, #8]
 693:lib/system_stm32f4xx.c ****     
 694:lib/system_stm32f4xx.c ****     /* PCLK1 = HCLK / 4*/
 695:lib/system_stm32f4xx.c ****     RCC->CFGR |= RCC_CFGR_PPRE1_DIV4;
  99              		.loc 1 695 0
 100 0068 9A68     		ldr	r2, [r3, #8]
 101 006a 42F4A052 		orr	r2, r2, #5120
 102 006e 9A60     		str	r2, [r3, #8]
 696:lib/system_stm32f4xx.c **** #endif /* STM32F40_41xxx || STM32F427_437x || STM32F429_439xx  || STM32F412xG || STM32F446xx || STM
 697:lib/system_stm32f4xx.c **** 
ARM GAS  C:\Users\rinck\AppData\Local\Temp\cc2e7cDb.s 			page 15


 698:lib/system_stm32f4xx.c **** #if defined(STM32F401xx) || defined(STM32F413_423xx)
 699:lib/system_stm32f4xx.c ****     /* PCLK2 = HCLK / 1*/
 700:lib/system_stm32f4xx.c ****     RCC->CFGR |= RCC_CFGR_PPRE2_DIV1;
 701:lib/system_stm32f4xx.c ****     
 702:lib/system_stm32f4xx.c ****     /* PCLK1 = HCLK / 2*/
 703:lib/system_stm32f4xx.c ****     RCC->CFGR |= RCC_CFGR_PPRE1_DIV2;
 704:lib/system_stm32f4xx.c **** #endif /* STM32F401xx || STM32F413_423xx */
 705:lib/system_stm32f4xx.c **** 
 706:lib/system_stm32f4xx.c **** #if defined(STM32F40_41xxx) || defined(STM32F427_437xx) || defined(STM32F429_439xx) || defined(STM3
 707:lib/system_stm32f4xx.c ****     /* Configure the main PLL */
 708:lib/system_stm32f4xx.c ****     RCC->PLLCFGR = PLL_M | (PLL_N << 6) | (((PLL_P >> 1) -1) << 16) |
 103              		.loc 1 708 0
 104 0070 124A     		ldr	r2, .L10+8
 105 0072 5A60     		str	r2, [r3, #4]
 709:lib/system_stm32f4xx.c ****                    (RCC_PLLCFGR_PLLSRC_HSE) | (PLL_Q << 24);
 710:lib/system_stm32f4xx.c **** #endif /* STM32F40_41xxx || STM32F401xx || STM32F427_437x || STM32F429_439xx || STM32F469_479xx */
 711:lib/system_stm32f4xx.c **** 
 712:lib/system_stm32f4xx.c **** #if  defined(STM32F412xG) || defined(STM32F413_423xx) || defined(STM32F446xx)
 713:lib/system_stm32f4xx.c ****     /* Configure the main PLL */
 714:lib/system_stm32f4xx.c ****     RCC->PLLCFGR = PLL_M | (PLL_N << 6) | (((PLL_P >> 1) -1) << 16) |
 715:lib/system_stm32f4xx.c ****                    (RCC_PLLCFGR_PLLSRC_HSE) | (PLL_Q << 24) | (PLL_R << 28);
 716:lib/system_stm32f4xx.c **** #endif /* STM32F412xG || STM32F413_423xx || STM32F446xx */    
 717:lib/system_stm32f4xx.c ****     
 718:lib/system_stm32f4xx.c ****     /* Enable the main PLL */
 719:lib/system_stm32f4xx.c ****     RCC->CR |= RCC_CR_PLLON;
 106              		.loc 1 719 0
 107 0074 1A68     		ldr	r2, [r3]
 108 0076 42F08072 		orr	r2, r2, #16777216
 109 007a 1A60     		str	r2, [r3]
 110              	.L7:
 720:lib/system_stm32f4xx.c **** 
 721:lib/system_stm32f4xx.c ****     /* Wait till the main PLL is ready */
 722:lib/system_stm32f4xx.c ****     while((RCC->CR & RCC_CR_PLLRDY) == 0)
 111              		.loc 1 722 0 discriminator 1
 112 007c 0D4B     		ldr	r3, .L10
 113 007e 1B68     		ldr	r3, [r3]
 114 0080 13F0007F 		tst	r3, #33554432
 115 0084 FAD0     		beq	.L7
 723:lib/system_stm32f4xx.c ****     {
 724:lib/system_stm32f4xx.c ****     }
 725:lib/system_stm32f4xx.c ****    
 726:lib/system_stm32f4xx.c **** #if defined(STM32F427_437xx) || defined(STM32F429_439xx) || defined(STM32F446xx) || defined(STM32F4
 727:lib/system_stm32f4xx.c ****     /* Enable the Over-drive to extend the clock frequency to 180 Mhz */
 728:lib/system_stm32f4xx.c ****     PWR->CR |= PWR_CR_ODEN;
 729:lib/system_stm32f4xx.c ****     while((PWR->CSR & PWR_CSR_ODRDY) == 0)
 730:lib/system_stm32f4xx.c ****     {
 731:lib/system_stm32f4xx.c ****     }
 732:lib/system_stm32f4xx.c ****     PWR->CR |= PWR_CR_ODSWEN;
 733:lib/system_stm32f4xx.c ****     while((PWR->CSR & PWR_CSR_ODSWRDY) == 0)
 734:lib/system_stm32f4xx.c ****     {
 735:lib/system_stm32f4xx.c ****     }      
 736:lib/system_stm32f4xx.c ****     /* Configure Flash prefetch, Instruction cache, Data cache and wait state */
 737:lib/system_stm32f4xx.c ****     FLASH->ACR = FLASH_ACR_PRFTEN | FLASH_ACR_ICEN |FLASH_ACR_DCEN |FLASH_ACR_LATENCY_5WS;
 738:lib/system_stm32f4xx.c **** #endif /* STM32F427_437x || STM32F429_439xx || STM32F446xx || STM32F469_479xx */
 739:lib/system_stm32f4xx.c **** 
 740:lib/system_stm32f4xx.c **** #if defined(STM32F40_41xxx)  || defined(STM32F412xG)  
 741:lib/system_stm32f4xx.c ****     /* Configure Flash prefetch, Instruction cache, Data cache and wait state */
ARM GAS  C:\Users\rinck\AppData\Local\Temp\cc2e7cDb.s 			page 16


 742:lib/system_stm32f4xx.c ****     FLASH->ACR = FLASH_ACR_PRFTEN | FLASH_ACR_ICEN |FLASH_ACR_DCEN |FLASH_ACR_LATENCY_5WS;
 116              		.loc 1 742 0
 117 0086 40F20572 		movw	r2, #1797
 118 008a 0D4B     		ldr	r3, .L10+12
 119 008c 1A60     		str	r2, [r3]
 743:lib/system_stm32f4xx.c **** #endif /* STM32F40_41xxx  || STM32F412xG */
 744:lib/system_stm32f4xx.c **** 
 745:lib/system_stm32f4xx.c **** #if defined(STM32F413_423xx)  
 746:lib/system_stm32f4xx.c ****     /* Configure Flash prefetch, Instruction cache, Data cache and wait state */
 747:lib/system_stm32f4xx.c ****     FLASH->ACR = FLASH_ACR_PRFTEN | FLASH_ACR_ICEN |FLASH_ACR_DCEN |FLASH_ACR_LATENCY_3WS;
 748:lib/system_stm32f4xx.c **** #endif /* STM32F413_423xx */
 749:lib/system_stm32f4xx.c **** 
 750:lib/system_stm32f4xx.c **** #if defined(STM32F401xx)
 751:lib/system_stm32f4xx.c ****     /* Configure Flash prefetch, Instruction cache, Data cache and wait state */
 752:lib/system_stm32f4xx.c ****     FLASH->ACR = FLASH_ACR_PRFTEN | FLASH_ACR_ICEN |FLASH_ACR_DCEN |FLASH_ACR_LATENCY_2WS;
 753:lib/system_stm32f4xx.c **** #endif /* STM32F401xx */
 754:lib/system_stm32f4xx.c **** 
 755:lib/system_stm32f4xx.c ****     /* Select the main PLL as system clock source */
 756:lib/system_stm32f4xx.c ****     RCC->CFGR &= (uint32_t)((uint32_t)~(RCC_CFGR_SW));
 120              		.loc 1 756 0
 121 008e A3F58063 		sub	r3, r3, #1024
 122 0092 9A68     		ldr	r2, [r3, #8]
 123 0094 22F00302 		bic	r2, r2, #3
 124 0098 9A60     		str	r2, [r3, #8]
 757:lib/system_stm32f4xx.c ****     RCC->CFGR |= RCC_CFGR_SW_PLL;
 125              		.loc 1 757 0
 126 009a 9A68     		ldr	r2, [r3, #8]
 127 009c 42F00202 		orr	r2, r2, #2
 128 00a0 9A60     		str	r2, [r3, #8]
 129              	.L8:
 758:lib/system_stm32f4xx.c **** 
 759:lib/system_stm32f4xx.c ****     /* Wait till the main PLL is used as system clock source */
 760:lib/system_stm32f4xx.c ****     while ((RCC->CFGR & (uint32_t)RCC_CFGR_SWS ) != RCC_CFGR_SWS_PLL);
 130              		.loc 1 760 0 discriminator 1
 131 00a2 044B     		ldr	r3, .L10
 132 00a4 9B68     		ldr	r3, [r3, #8]
 133 00a6 03F00C03 		and	r3, r3, #12
 134 00aa 082B     		cmp	r3, #8
 135 00ac F9D1     		bne	.L8
 136              	.L1:
 761:lib/system_stm32f4xx.c ****     {
 762:lib/system_stm32f4xx.c ****     }
 763:lib/system_stm32f4xx.c ****   }
 764:lib/system_stm32f4xx.c ****   else
 765:lib/system_stm32f4xx.c ****   { /* If HSE fails to start-up, the application will have wrong clock
 766:lib/system_stm32f4xx.c ****          configuration. User can add here some code to deal with this error */
 767:lib/system_stm32f4xx.c ****   }
 768:lib/system_stm32f4xx.c **** #elif defined(STM32F410xx) || defined(STM32F411xE)
 769:lib/system_stm32f4xx.c **** #if defined(USE_HSE_BYPASS) 
 770:lib/system_stm32f4xx.c **** /******************************************************************************/
 771:lib/system_stm32f4xx.c **** /*            PLL (clocked by HSE) used as System clock source                */
 772:lib/system_stm32f4xx.c **** /******************************************************************************/
 773:lib/system_stm32f4xx.c ****   __IO uint32_t StartUpCounter = 0, HSEStatus = 0;
 774:lib/system_stm32f4xx.c ****   
 775:lib/system_stm32f4xx.c ****   /* Enable HSE and HSE BYPASS */
 776:lib/system_stm32f4xx.c ****   RCC->CR |= ((uint32_t)RCC_CR_HSEON | RCC_CR_HSEBYP);
 777:lib/system_stm32f4xx.c ****  
ARM GAS  C:\Users\rinck\AppData\Local\Temp\cc2e7cDb.s 			page 17


 778:lib/system_stm32f4xx.c ****   /* Wait till HSE is ready and if Time out is reached exit */
 779:lib/system_stm32f4xx.c ****   do
 780:lib/system_stm32f4xx.c ****   {
 781:lib/system_stm32f4xx.c ****     HSEStatus = RCC->CR & RCC_CR_HSERDY;
 782:lib/system_stm32f4xx.c ****     StartUpCounter++;
 783:lib/system_stm32f4xx.c ****   } while((HSEStatus == 0) && (StartUpCounter != HSE_STARTUP_TIMEOUT));
 784:lib/system_stm32f4xx.c **** 
 785:lib/system_stm32f4xx.c ****   if ((RCC->CR & RCC_CR_HSERDY) != RESET)
 786:lib/system_stm32f4xx.c ****   {
 787:lib/system_stm32f4xx.c ****     HSEStatus = (uint32_t)0x01;
 788:lib/system_stm32f4xx.c ****   }
 789:lib/system_stm32f4xx.c ****   else
 790:lib/system_stm32f4xx.c ****   {
 791:lib/system_stm32f4xx.c ****     HSEStatus = (uint32_t)0x00;
 792:lib/system_stm32f4xx.c ****   }
 793:lib/system_stm32f4xx.c **** 
 794:lib/system_stm32f4xx.c ****   if (HSEStatus == (uint32_t)0x01)
 795:lib/system_stm32f4xx.c ****   {
 796:lib/system_stm32f4xx.c ****     /* Select regulator voltage output Scale 1 mode */
 797:lib/system_stm32f4xx.c ****     RCC->APB1ENR |= RCC_APB1ENR_PWREN;
 798:lib/system_stm32f4xx.c ****     PWR->CR |= PWR_CR_VOS;
 799:lib/system_stm32f4xx.c **** 
 800:lib/system_stm32f4xx.c ****     /* HCLK = SYSCLK / 1*/
 801:lib/system_stm32f4xx.c ****     RCC->CFGR |= RCC_CFGR_HPRE_DIV1;
 802:lib/system_stm32f4xx.c **** 
 803:lib/system_stm32f4xx.c ****     /* PCLK2 = HCLK / 2*/
 804:lib/system_stm32f4xx.c ****     RCC->CFGR |= RCC_CFGR_PPRE2_DIV1;
 805:lib/system_stm32f4xx.c ****     
 806:lib/system_stm32f4xx.c ****     /* PCLK1 = HCLK / 4*/
 807:lib/system_stm32f4xx.c ****     RCC->CFGR |= RCC_CFGR_PPRE1_DIV2;
 808:lib/system_stm32f4xx.c **** 
 809:lib/system_stm32f4xx.c ****     /* Configure the main PLL */
 810:lib/system_stm32f4xx.c ****     RCC->PLLCFGR = PLL_M | (PLL_N << 6) | (((PLL_P >> 1) -1) << 16) |
 811:lib/system_stm32f4xx.c ****                    (RCC_PLLCFGR_PLLSRC_HSE) | (PLL_Q << 24);
 812:lib/system_stm32f4xx.c ****     
 813:lib/system_stm32f4xx.c ****     /* Enable the main PLL */
 814:lib/system_stm32f4xx.c ****     RCC->CR |= RCC_CR_PLLON;
 815:lib/system_stm32f4xx.c **** 
 816:lib/system_stm32f4xx.c ****     /* Wait till the main PLL is ready */
 817:lib/system_stm32f4xx.c ****     while((RCC->CR & RCC_CR_PLLRDY) == 0)
 818:lib/system_stm32f4xx.c ****     {
 819:lib/system_stm32f4xx.c ****     }
 820:lib/system_stm32f4xx.c **** 
 821:lib/system_stm32f4xx.c ****     /* Configure Flash prefetch, Instruction cache, Data cache and wait state */
 822:lib/system_stm32f4xx.c ****     FLASH->ACR = FLASH_ACR_PRFTEN | FLASH_ACR_ICEN |FLASH_ACR_DCEN |FLASH_ACR_LATENCY_2WS;
 823:lib/system_stm32f4xx.c **** 
 824:lib/system_stm32f4xx.c ****     /* Select the main PLL as system clock source */
 825:lib/system_stm32f4xx.c ****     RCC->CFGR &= (uint32_t)((uint32_t)~(RCC_CFGR_SW));
 826:lib/system_stm32f4xx.c ****     RCC->CFGR |= RCC_CFGR_SW_PLL;
 827:lib/system_stm32f4xx.c **** 
 828:lib/system_stm32f4xx.c ****     /* Wait till the main PLL is used as system clock source */
 829:lib/system_stm32f4xx.c ****     while ((RCC->CFGR & (uint32_t)RCC_CFGR_SWS ) != RCC_CFGR_SWS_PLL);
 830:lib/system_stm32f4xx.c ****     {
 831:lib/system_stm32f4xx.c ****     }
 832:lib/system_stm32f4xx.c ****   }
 833:lib/system_stm32f4xx.c ****   else
 834:lib/system_stm32f4xx.c ****   { /* If HSE fails to start-up, the application will have wrong clock
ARM GAS  C:\Users\rinck\AppData\Local\Temp\cc2e7cDb.s 			page 18


 835:lib/system_stm32f4xx.c ****          configuration. User can add here some code to deal with this error */
 836:lib/system_stm32f4xx.c ****   }
 837:lib/system_stm32f4xx.c **** #else /* HSI will be used as PLL clock source */
 838:lib/system_stm32f4xx.c ****   /* Select regulator voltage output Scale 1 mode */
 839:lib/system_stm32f4xx.c ****   RCC->APB1ENR |= RCC_APB1ENR_PWREN;
 840:lib/system_stm32f4xx.c ****   PWR->CR |= PWR_CR_VOS;
 841:lib/system_stm32f4xx.c ****   
 842:lib/system_stm32f4xx.c ****   /* HCLK = SYSCLK / 1*/
 843:lib/system_stm32f4xx.c ****   RCC->CFGR |= RCC_CFGR_HPRE_DIV1;
 844:lib/system_stm32f4xx.c ****   
 845:lib/system_stm32f4xx.c ****   /* PCLK2 = HCLK / 2*/
 846:lib/system_stm32f4xx.c ****   RCC->CFGR |= RCC_CFGR_PPRE2_DIV1;
 847:lib/system_stm32f4xx.c ****   
 848:lib/system_stm32f4xx.c ****   /* PCLK1 = HCLK / 4*/
 849:lib/system_stm32f4xx.c ****   RCC->CFGR |= RCC_CFGR_PPRE1_DIV2;
 850:lib/system_stm32f4xx.c ****   
 851:lib/system_stm32f4xx.c ****   /* Configure the main PLL */
 852:lib/system_stm32f4xx.c ****   RCC->PLLCFGR = PLL_M | (PLL_N << 6) | (((PLL_P >> 1) -1) << 16) | (PLL_Q << 24); 
 853:lib/system_stm32f4xx.c ****   
 854:lib/system_stm32f4xx.c ****   /* Enable the main PLL */
 855:lib/system_stm32f4xx.c ****   RCC->CR |= RCC_CR_PLLON;
 856:lib/system_stm32f4xx.c ****   
 857:lib/system_stm32f4xx.c ****   /* Wait till the main PLL is ready */
 858:lib/system_stm32f4xx.c ****   while((RCC->CR & RCC_CR_PLLRDY) == 0)
 859:lib/system_stm32f4xx.c ****   {
 860:lib/system_stm32f4xx.c ****   }
 861:lib/system_stm32f4xx.c ****   
 862:lib/system_stm32f4xx.c ****   /* Configure Flash prefetch, Instruction cache, Data cache and wait state */
 863:lib/system_stm32f4xx.c ****   FLASH->ACR = FLASH_ACR_PRFTEN | FLASH_ACR_ICEN |FLASH_ACR_DCEN |FLASH_ACR_LATENCY_2WS;
 864:lib/system_stm32f4xx.c ****   
 865:lib/system_stm32f4xx.c ****   /* Select the main PLL as system clock source */
 866:lib/system_stm32f4xx.c ****   RCC->CFGR &= (uint32_t)((uint32_t)~(RCC_CFGR_SW));
 867:lib/system_stm32f4xx.c ****   RCC->CFGR |= RCC_CFGR_SW_PLL;
 868:lib/system_stm32f4xx.c ****   
 869:lib/system_stm32f4xx.c ****   /* Wait till the main PLL is used as system clock source */
 870:lib/system_stm32f4xx.c ****   while ((RCC->CFGR & (uint32_t)RCC_CFGR_SWS ) != RCC_CFGR_SWS_PLL);
 871:lib/system_stm32f4xx.c ****   {
 872:lib/system_stm32f4xx.c ****   }
 873:lib/system_stm32f4xx.c **** #endif /* USE_HSE_BYPASS */  
 874:lib/system_stm32f4xx.c **** #endif /* STM32F40_41xxx || STM32F427_437xx || STM32F429_439xx || STM32F401xx || STM32F469_479xx */
 875:lib/system_stm32f4xx.c **** }
 137              		.loc 1 875 0
 138 00ae 02B0     		add	sp, sp, #8
 139              	.LCFI1:
 140              		.cfi_def_cfa_offset 0
 141              		@ sp needed
 142 00b0 7047     		bx	lr
 143              	.L11:
 144 00b2 00BF     		.align	2
 145              	.L10:
 146 00b4 00380240 		.word	1073887232
 147 00b8 00700040 		.word	1073770496
 148 00bc 19544007 		.word	121656345
 149 00c0 003C0240 		.word	1073888256
 150              		.cfi_endproc
 151              	.LFE125:
 153              		.section	.text.SystemInit,"ax",%progbits
ARM GAS  C:\Users\rinck\AppData\Local\Temp\cc2e7cDb.s 			page 19


 154              		.align	2
 155              		.global	SystemInit
 156              		.thumb
 157              		.thumb_func
 159              	SystemInit:
 160              	.LFB123:
 484:lib/system_stm32f4xx.c ****   /* FPU settings ------------------------------------------------------------*/
 161              		.loc 1 484 0
 162              		.cfi_startproc
 163              		@ args = 0, pretend = 0, frame = 0
 164              		@ frame_needed = 0, uses_anonymous_args = 0
 165 0000 10B5     		push	{r4, lr}
 166              	.LCFI2:
 167              		.cfi_def_cfa_offset 8
 168              		.cfi_offset 4, -8
 169              		.cfi_offset 14, -4
 487:lib/system_stm32f4xx.c ****   #endif
 170              		.loc 1 487 0
 171 0002 104C     		ldr	r4, .L14
 172 0004 D4F88830 		ldr	r3, [r4, #136]
 173 0008 43F47003 		orr	r3, r3, #15728640
 174 000c C4F88830 		str	r3, [r4, #136]
 491:lib/system_stm32f4xx.c **** 
 175              		.loc 1 491 0
 176 0010 0D4B     		ldr	r3, .L14+4
 177 0012 1A68     		ldr	r2, [r3]
 178 0014 42F00102 		orr	r2, r2, #1
 179 0018 1A60     		str	r2, [r3]
 494:lib/system_stm32f4xx.c **** 
 180              		.loc 1 494 0
 181 001a 0021     		movs	r1, #0
 182 001c 9960     		str	r1, [r3, #8]
 497:lib/system_stm32f4xx.c **** 
 183              		.loc 1 497 0
 184 001e 1A68     		ldr	r2, [r3]
 185 0020 22F08472 		bic	r2, r2, #17301504
 186 0024 22F48032 		bic	r2, r2, #65536
 187 0028 1A60     		str	r2, [r3]
 500:lib/system_stm32f4xx.c **** 
 188              		.loc 1 500 0
 189 002a 084A     		ldr	r2, .L14+8
 190 002c 5A60     		str	r2, [r3, #4]
 503:lib/system_stm32f4xx.c **** 
 191              		.loc 1 503 0
 192 002e 1A68     		ldr	r2, [r3]
 193 0030 22F48022 		bic	r2, r2, #262144
 194 0034 1A60     		str	r2, [r3]
 506:lib/system_stm32f4xx.c **** 
 195              		.loc 1 506 0
 196 0036 D960     		str	r1, [r3, #12]
 514:lib/system_stm32f4xx.c **** 
 197              		.loc 1 514 0
 198 0038 FFF7FEFF 		bl	SetSysClock
 199              	.LVL0:
 520:lib/system_stm32f4xx.c **** #endif
 200              		.loc 1 520 0
 201 003c 4FF00063 		mov	r3, #134217728
ARM GAS  C:\Users\rinck\AppData\Local\Temp\cc2e7cDb.s 			page 20


 202 0040 A360     		str	r3, [r4, #8]
 203 0042 10BD     		pop	{r4, pc}
 204              	.L15:
 205              		.align	2
 206              	.L14:
 207 0044 00ED00E0 		.word	-536810240
 208 0048 00380240 		.word	1073887232
 209 004c 10300024 		.word	603992080
 210              		.cfi_endproc
 211              	.LFE123:
 213              		.section	.text.SystemCoreClockUpdate,"ax",%progbits
 214              		.align	2
 215              		.global	SystemCoreClockUpdate
 216              		.thumb
 217              		.thumb_func
 219              	SystemCoreClockUpdate:
 220              	.LFB124:
 561:lib/system_stm32f4xx.c ****   uint32_t tmp = 0, pllvco = 0, pllp = 2, pllsource = 0, pllm = 2;
 221              		.loc 1 561 0
 222              		.cfi_startproc
 223              		@ args = 0, pretend = 0, frame = 0
 224              		@ frame_needed = 0, uses_anonymous_args = 0
 225              		@ link register save eliminated.
 226              	.LVL1:
 567:lib/system_stm32f4xx.c **** 
 227              		.loc 1 567 0
 228 0000 234B     		ldr	r3, .L25
 229 0002 9B68     		ldr	r3, [r3, #8]
 230 0004 03F00C03 		and	r3, r3, #12
 231              	.LVL2:
 569:lib/system_stm32f4xx.c ****   {
 232              		.loc 1 569 0
 233 0008 042B     		cmp	r3, #4
 234 000a 07D0     		beq	.L18
 235 000c 082B     		cmp	r3, #8
 236 000e 09D0     		beq	.L19
 237 0010 002B     		cmp	r3, #0
 238 0012 2DD1     		bne	.L24
 572:lib/system_stm32f4xx.c ****       break;
 239              		.loc 1 572 0
 240 0014 1F4A     		ldr	r2, .L25+4
 241 0016 204B     		ldr	r3, .L25+8
 242              	.LVL3:
 243 0018 1A60     		str	r2, [r3]
 573:lib/system_stm32f4xx.c ****     case 0x04:  /* HSE used as system clock source */
 244              		.loc 1 573 0
 245 001a 2CE0     		b	.L21
 246              	.LVL4:
 247              	.L18:
 575:lib/system_stm32f4xx.c ****       break;
 248              		.loc 1 575 0
 249 001c 1F4A     		ldr	r2, .L25+12
 250 001e 1E4B     		ldr	r3, .L25+8
 251              	.LVL5:
 252 0020 1A60     		str	r2, [r3]
 576:lib/system_stm32f4xx.c ****     case 0x08:  /* PLL P used as system clock source */
 253              		.loc 1 576 0
ARM GAS  C:\Users\rinck\AppData\Local\Temp\cc2e7cDb.s 			page 21


 254 0022 28E0     		b	.L21
 255              	.LVL6:
 256              	.L19:
 581:lib/system_stm32f4xx.c ****       pllm = RCC->PLLCFGR & RCC_PLLCFGR_PLLM;
 257              		.loc 1 581 0
 258 0024 1A4B     		ldr	r3, .L25
 259              	.LVL7:
 260 0026 5A68     		ldr	r2, [r3, #4]
 261              	.LVL8:
 582:lib/system_stm32f4xx.c ****       
 262              		.loc 1 582 0
 263 0028 5B68     		ldr	r3, [r3, #4]
 264 002a 03F03F03 		and	r3, r3, #63
 265              	.LVL9:
 585:lib/system_stm32f4xx.c ****       {
 266              		.loc 1 585 0
 267 002e 12F4800F 		tst	r2, #4194304
 268 0032 09D0     		beq	.L22
 588:lib/system_stm32f4xx.c ****       }
 269              		.loc 1 588 0
 270 0034 194A     		ldr	r2, .L25+12
 271              	.LVL10:
 272 0036 B2FBF3F2 		udiv	r2, r2, r3
 273 003a 154B     		ldr	r3, .L25
 274              	.LVL11:
 275 003c 5B68     		ldr	r3, [r3, #4]
 276 003e C3F38813 		ubfx	r3, r3, #6, #9
 277 0042 03FB02F2 		mul	r2, r3, r2
 278              	.LVL12:
 279 0046 08E0     		b	.L23
 280              	.LVL13:
 281              	.L22:
 593:lib/system_stm32f4xx.c ****       }
 282              		.loc 1 593 0
 283 0048 124A     		ldr	r2, .L25+4
 284              	.LVL14:
 285 004a B2FBF3F3 		udiv	r3, r2, r3
 286              	.LVL15:
 287 004e 104A     		ldr	r2, .L25
 288 0050 5168     		ldr	r1, [r2, #4]
 289 0052 C1F38811 		ubfx	r1, r1, #6, #9
 290 0056 01FB03F2 		mul	r2, r1, r3
 291              	.LVL16:
 292              	.L23:
 610:lib/system_stm32f4xx.c ****       SystemCoreClock = pllvco/pllp;      
 293              		.loc 1 610 0
 294 005a 0D4B     		ldr	r3, .L25
 295 005c 5B68     		ldr	r3, [r3, #4]
 296 005e C3F30143 		ubfx	r3, r3, #16, #2
 297 0062 0133     		adds	r3, r3, #1
 298 0064 5B00     		lsls	r3, r3, #1
 299              	.LVL17:
 611:lib/system_stm32f4xx.c ****       break;
 300              		.loc 1 611 0
 301 0066 B2FBF3F3 		udiv	r3, r2, r3
 302              	.LVL18:
 303 006a 0B4A     		ldr	r2, .L25+8
ARM GAS  C:\Users\rinck\AppData\Local\Temp\cc2e7cDb.s 			page 22


 304              	.LVL19:
 305 006c 1360     		str	r3, [r2]
 612:lib/system_stm32f4xx.c **** #if defined(STM32F412xG) || defined(STM32F413_423xx) || defined(STM32F446xx)      
 306              		.loc 1 612 0
 307 006e 02E0     		b	.L21
 308              	.LVL20:
 309              	.L24:
 636:lib/system_stm32f4xx.c ****       break;
 310              		.loc 1 636 0
 311 0070 084A     		ldr	r2, .L25+4
 312 0072 094B     		ldr	r3, .L25+8
 313              	.LVL21:
 314 0074 1A60     		str	r2, [r3]
 315              	.LVL22:
 316              	.L21:
 641:lib/system_stm32f4xx.c ****   /* HCLK frequency */
 317              		.loc 1 641 0
 318 0076 064B     		ldr	r3, .L25
 319 0078 9B68     		ldr	r3, [r3, #8]
 320 007a C3F30313 		ubfx	r3, r3, #4, #4
 321 007e 084A     		ldr	r2, .L25+16
 322 0080 D35C     		ldrb	r3, [r2, r3]	@ zero_extendqisi2
 323 0082 DAB2     		uxtb	r2, r3
 324              	.LVL23:
 643:lib/system_stm32f4xx.c **** }
 325              		.loc 1 643 0
 326 0084 0449     		ldr	r1, .L25+8
 327 0086 0B68     		ldr	r3, [r1]
 328 0088 D340     		lsrs	r3, r3, r2
 329 008a 0B60     		str	r3, [r1]
 330 008c 7047     		bx	lr
 331              	.L26:
 332 008e 00BF     		.align	2
 333              	.L25:
 334 0090 00380240 		.word	1073887232
 335 0094 0024F400 		.word	16000000
 336 0098 00000000 		.word	.LANCHOR0
 337 009c 40787D01 		.word	25000000
 338 00a0 00000000 		.word	.LANCHOR1
 339              		.cfi_endproc
 340              	.LFE124:
 342              		.global	AHBPrescTable
 343              		.global	SystemCoreClock
 344              		.section	.data.AHBPrescTable,"aw",%progbits
 345              		.align	2
 346              		.set	.LANCHOR1,. + 0
 349              	AHBPrescTable:
 350 0000 00       		.byte	0
 351 0001 00       		.byte	0
 352 0002 00       		.byte	0
 353 0003 00       		.byte	0
 354 0004 00       		.byte	0
 355 0005 00       		.byte	0
 356 0006 00       		.byte	0
 357 0007 00       		.byte	0
 358 0008 01       		.byte	1
 359 0009 02       		.byte	2
ARM GAS  C:\Users\rinck\AppData\Local\Temp\cc2e7cDb.s 			page 23


 360 000a 03       		.byte	3
 361 000b 04       		.byte	4
 362 000c 06       		.byte	6
 363 000d 07       		.byte	7
 364 000e 08       		.byte	8
 365 000f 09       		.byte	9
 366              		.section	.data.SystemCoreClock,"aw",%progbits
 367              		.align	2
 368              		.set	.LANCHOR0,. + 0
 371              	SystemCoreClock:
 372 0000 007A030A 		.word	168000000
 373              		.text
 374              	.Letext0:
 375              		.file 2 "d:\\arm-none-eabi-gcc\\5.4 2016q3\\arm-none-eabi\\include\\machine\\_default_types.h"
 376              		.file 3 "d:\\arm-none-eabi-gcc\\5.4 2016q3\\arm-none-eabi\\include\\sys\\_stdint.h"
 377              		.file 4 "lib/system/core_cm4.h"
 378              		.file 5 "lib/stm32f4xx.h"
ARM GAS  C:\Users\rinck\AppData\Local\Temp\cc2e7cDb.s 			page 24

